(lp0
(lp1
F5.347543085946383
aF1.4565444387540487
aFnan
aa(lp2
F9.361810990557789
aF6.248329152747428
aF6.577539136777664
aa(lp3
F6.828161249941139
aF3.1151205239372706
aF3.07785613952233
aa(lp4
F3.886904801377897
aF3.571253532814063
aF3.315203398783278
aa(lp5
F5.573240246574217
aF2.4552808815955047
aF3.208100797861386
aa(lp6
F5.240571045379681
aF2.6157891595510914
aF2.662741134738332
aa(lp7
F1.7538282258779814
aF2.0822360041110883
aF2.2981374950942817
aa(lp8
F5.703223928605955
aF3.4438873638872414
aF3.096862171274949
aa.