(lp0
(lp1
F2.0759530898753216
aF0.7150296469232191
aF0.6852970670094203
aa(lp2
I0
aF1.0960474544165195
aI0
aa(lp3
F-2.868780580472797
aF1.5763846853311454
aF4.122273397427125
aa(lp4
F5.2005340807832585
aF1.236819794267857
aF1.1849904571027294
aa(lp5
F-14.659073051572154
aF1.7980610114907574
aF-14.622830146897051
aa(lp6
I0
aI1
aI0
aa(lp7
F-26.682280438795782
aF-16.71175339708838
aF-22.846608172632394
aa(lp8
F2.832833138913845
aF1.045735425615309
aF2.167094291252819
aa.