(lp0
(lp1
F5.090032568477201
aF0.6511024163586998
aF0.934428091038644
aa(lp2
F7.262041952365251
aF1.1868312293372636
aI0
aa(lp3
F-2.116519657565852
aF1.7029620101054739
aF3.0519179222434487
aa(lp4
F4.424363733839925
aF1.1281410030366683
aF1.1960678957078894
aa(lp5
F-8.938832629897592
aF0.09123159130719725
aF-1.7290371525611075
aa(lp6
F5.224300038510646
aF0.2651135203308771
aF0.06995217291468522
aa(lp7
F-23.793784370021537
aF0.5321744990082489
aF-21.296838469338578
aa(lp8
F3.677833478532328
aF1.045735425615309
aF2.167094291252819
aa.