(lp0
(lp1
F-8.700585552438065
aF0.07585846093027737
aF0.7262869169230325
aa(lp2
I0
aF1.4277243687969994
aI0
aa(lp3
F-2.868780580472797
aF1.5763846853311454
aF4.439640875988578
aa(lp4
F3.0543157662872766
aF1.236819794267857
aF1.1849904571027294
aa(lp5
F-14.659073051572154
aF0.159176350254987
aF-14.622830146897051
aa(lp6
I0
aI1
aI0
aa(lp7
F-26.682280438795782
aF-16.71175339708838
aF-22.846608172632394
aa(lp8
F2.832833138913845
aF1.045735425615309
aF2.167094291252819
aa.